target datalayout = "e-m:e-p270:32:32-p271:32:32-p272:64:64-i64:64-i128:128-f80:128-n8:16:32:64-S128"
target triple = "x86_64-pc-linux-gnu"

%"class.std::__cxx11::basic_string" = type { %"struct.std::__cxx11::basic_string<char>::_Alloc_hider", i64, %union.anon }
%"struct.std::__cxx11::basic_string<char>::_Alloc_hider" = type { ptr }
%union.anon = type { i64, [8 x i8] }
%class.cmFindBase = type { ptr, %class.cmFindCommon, %"class.std::__cxx11::basic_string", %"class.std::__cxx11::basic_string", i32, %"class.std::__cxx11::basic_string", %"class.std::vector", i8, i8, %"class.std::__cxx11::basic_string", i8, i8, i8, i8, %"class.std::__cxx11::basic_string" }
%class.cmFindCommon = type { %"class.std::vector", %"class.std::vector", %"class.std::__cxx11::basic_string", i32, i8, i8, i8, i8, i8, i8, i8, i8, i32, %"class.std::vector", %"class.std::map", %"class.std::vector.6", %"class.std::map.11", %"class.std::map.19", %"class.std::vector", %"class.std::set", i8, i8, i8, i8, i8, i8, ptr, ptr }
%"class.std::map" = type { %"class.std::_Rb_tree" }
%"class.std::_Rb_tree" = type { %"struct.std::_Rb_tree<cmFindCommon::PathGroup, std::pair<const cmFindCommon::PathGroup, std::vector<cmFindCommon::PathLabel>>, std::_Select1st<std::pair<const cmFindCommon::PathGroup, std::vector<cmFindCommon::PathLabel>>>, std::less<cmFindCommon::PathGroup>>::_Rb_tree_impl" }
%"struct.std::_Rb_tree<cmFindCommon::PathGroup, std::pair<const cmFindCommon::PathGroup, std::vector<cmFindCommon::PathLabel>>, std::_Select1st<std::pair<const cmFindCommon::PathGroup, std::vector<cmFindCommon::PathLabel>>>, std::less<cmFindCommon::PathGroup>>::_Rb_tree_impl" = type { %"struct.std::_Rb_tree_key_compare", %"struct.std::_Rb_tree_header" }
%"struct.std::_Rb_tree_key_compare" = type { %"struct.std::less" }
%"struct.std::less" = type { i8 }
%"struct.std::_Rb_tree_header" = type { %"struct.std::_Rb_tree_node_base", i64 }
%"struct.std::_Rb_tree_node_base" = type { i32, ptr, ptr, ptr }
%"class.std::vector.6" = type { %"struct.std::_Vector_base.7" }
%"struct.std::_Vector_base.7" = type { %"struct.std::_Vector_base<cmFindCommon::PathGroup, std::allocator<cmFindCommon::PathGroup>>::_Vector_impl" }
%"struct.std::_Vector_base<cmFindCommon::PathGroup, std::allocator<cmFindCommon::PathGroup>>::_Vector_impl" = type { %"struct.std::_Vector_base<cmFindCommon::PathGroup, std::allocator<cmFindCommon::PathGroup>>::_Vector_impl_data" }
%"struct.std::_Vector_base<cmFindCommon::PathGroup, std::allocator<cmFindCommon::PathGroup>>::_Vector_impl_data" = type { ptr, ptr, ptr }
%"class.std::map.11" = type { %"class.std::_Rb_tree.12" }
%"class.std::_Rb_tree.12" = type { %"struct.std::_Rb_tree<std::__cxx11::basic_string<char>, std::pair<const std::__cxx11::basic_string<char>, cmFindCommon::PathLabel>, std::_Select1st<std::pair<const std::__cxx11::basic_string<char>, cmFindCommon::PathLabel>>, std::less<std::__cxx11::basic_string<char>>>::_Rb_tree_impl" }
%"struct.std::_Rb_tree<std::__cxx11::basic_string<char>, std::pair<const std::__cxx11::basic_string<char>, cmFindCommon::PathLabel>, std::_Select1st<std::pair<const std::__cxx11::basic_string<char>, cmFindCommon::PathLabel>>, std::less<std::__cxx11::basic_string<char>>>::_Rb_tree_impl" = type { %"struct.std::_Rb_tree_key_compare.16", %"struct.std::_Rb_tree_header" }
%"struct.std::_Rb_tree_key_compare.16" = type { %"struct.std::less.17" }
%"struct.std::less.17" = type { i8 }
%"class.std::map.19" = type { %"class.std::_Rb_tree.20" }
%"class.std::_Rb_tree.20" = type { %"struct.std::_Rb_tree<cmFindCommon::PathLabel, std::pair<const cmFindCommon::PathLabel, cmSearchPath>, std::_Select1st<std::pair<const cmFindCommon::PathLabel, cmSearchPath>>, std::less<cmFindCommon::PathLabel>>::_Rb_tree_impl" }
%"struct.std::_Rb_tree<cmFindCommon::PathLabel, std::pair<const cmFindCommon::PathLabel, cmSearchPath>, std::_Select1st<std::pair<const cmFindCommon::PathLabel, cmSearchPath>>, std::less<cmFindCommon::PathLabel>>::_Rb_tree_impl" = type { %"struct.std::_Rb_tree_key_compare.24", %"struct.std::_Rb_tree_header" }
%"struct.std::_Rb_tree_key_compare.24" = type { %"struct.std::less.25" }
%"struct.std::less.25" = type { i8 }
%"class.std::set" = type { %"class.std::_Rb_tree.27" }
%"class.std::_Rb_tree.27" = type { %"struct.std::_Rb_tree<cmSearchPath::PathWithPrefix, cmSearchPath::PathWithPrefix, std::_Identity<cmSearchPath::PathWithPrefix>, std::less<cmSearchPath::PathWithPrefix>>::_Rb_tree_impl" }
%"struct.std::_Rb_tree<cmSearchPath::PathWithPrefix, cmSearchPath::PathWithPrefix, std::_Identity<cmSearchPath::PathWithPrefix>, std::less<cmSearchPath::PathWithPrefix>>::_Rb_tree_impl" = type { %"struct.std::_Rb_tree_key_compare.31", %"struct.std::_Rb_tree_header" }
%"struct.std::_Rb_tree_key_compare.31" = type { %"struct.std::less.32" }
%"struct.std::less.32" = type { i8 }
%"class.std::vector" = type { %"struct.std::_Vector_base" }
%"struct.std::_Vector_base" = type { %"struct.std::_Vector_base<std::__cxx11::basic_string<char>, std::allocator<std::__cxx11::basic_string<char>>>::_Vector_impl" }
%"struct.std::_Vector_base<std::__cxx11::basic_string<char>, std::allocator<std::__cxx11::basic_string<char>>>::_Vector_impl" = type { %"struct.std::_Vector_base<std::__cxx11::basic_string<char>, std::allocator<std::__cxx11::basic_string<char>>>::_Vector_impl_data" }
%"struct.std::_Vector_base<std::__cxx11::basic_string<char>, std::allocator<std::__cxx11::basic_string<char>>>::_Vector_impl_data" = type { ptr, ptr, ptr }

@.str = private unnamed_addr constant [8 x i8] c"INCLUDE\00", align 1

; Function Attrs: mustprogress uwtable
define dso_local noundef zeroext i1 @_ZN17cmFindPathCommand11InitialPassERKSt6vectorINSt7__cxx1112basic_stringIcSt11char_traitsIcESaIcEEESaIS6_EE(ptr noundef nonnull align 8 dereferenceable(601) %0, ptr noundef nonnull align 8 dereferenceable(24) %1) #4 align 2 personality ptr @__gxx_personality_v0 {
  %3 = alloca i1, align 1
  %4 = alloca ptr, align 8
  %5 = alloca ptr, align 8
  %6 = alloca %"class.std::__cxx11::basic_string", align 8
  %7 = alloca ptr, align 8
  %8 = alloca i32, align 4
  store ptr %0, ptr %4, align 8
  store ptr %1, ptr %5, align 8
  %9 = load ptr, ptr %4, align 8
  %10 = getelementptr inbounds i8, ptr %9, i64 8
  %11 = getelementptr inbounds %class.cmFindCommon, ptr %10, i32 0, i32 2
  %12 = call noundef nonnull align 8 dereferenceable(32) ptr @_ZNSt7__cxx1112basic_stringIcSt11char_traitsIcESaIcEEaSEPKc(ptr noundef nonnull align 8 dereferenceable(32) %11, ptr noundef @.str)
  %13 = load ptr, ptr %5, align 8
  %14 = load ptr, ptr %9, align 8
  %15 = getelementptr inbounds ptr, ptr %14, i64 2
  %16 = load ptr, ptr %15, align 8
  %17 = call noundef zeroext i1 %16(ptr noundef nonnull align 8 dereferenceable(600) %9, ptr noundef nonnull align 8 dereferenceable(24) %13)
  br i1 %17, label %19, label %18

18:                                               ; preds = %2
  store i1 false, ptr %3, align 1
  br label %36

19:                                               ; preds = %2
  %20 = getelementptr inbounds i8, ptr %9, i64 8
  %21 = getelementptr inbounds %class.cmFindBase, ptr %9, i32 0, i32 5
  %22 = call noundef zeroext i1 @_ZN12cmFindCommon24ComputeIfDebugModeWantedERKNSt7__cxx1112basic_stringIcSt11char_traitsIcESaIcEEE(ptr noundef nonnull align 8 dereferenceable(384) %20, ptr noundef nonnull align 8 dereferenceable(32) %21)
  %23 = getelementptr inbounds i8, ptr %9, i64 8
  %24 = getelementptr inbounds %class.cmFindCommon, ptr %23, i32 0, i32 4
  %25 = zext i1 %22 to i8
  store i8 %25, ptr %24, align 4
  %26 = getelementptr inbounds %class.cmFindBase, ptr %9, i32 0, i32 10
  %27 = load i8, ptr %26, align 8
  %28 = trunc i8 %27 to i1
  br i1 %28, label %29, label %30

29:                                               ; preds = %19
  call void @_ZN10cmFindBase19NormalizeFindResultEv(ptr noundef nonnull align 8 dereferenceable(600) %9)
  store i1 true, ptr %3, align 1
  br label %36

30:                                               ; preds = %19
  call void @_ZN17cmFindPathCommand10FindHeaderB5cxx11Ev(ptr dead_on_unwind writable sret(%"class.std::__cxx11::basic_string") align 8 %6, ptr noundef nonnull align 8 dereferenceable(601) %9)
  invoke void @_ZN10cmFindBase15StoreFindResultERKNSt7__cxx1112basic_stringIcSt11char_traitsIcESaIcEEE(ptr noundef nonnull align 8 dereferenceable(600) %9, ptr noundef nonnull align 8 dereferenceable(32) %6)
          to label %31 unwind label %32

31:                                               ; preds = %30
  store i1 true, ptr %3, align 1
  call void @_ZNSt7__cxx1112basic_stringIcSt11char_traitsIcESaIcEED1Ev(ptr noundef nonnull align 8 dereferenceable(32) %6) #3
  br label %36

32:                                               ; preds = %30
  %33 = landingpad { ptr, i32 }
          cleanup
  %34 = extractvalue { ptr, i32 } %33, 0
  store ptr %34, ptr %7, align 8
  %35 = extractvalue { ptr, i32 } %33, 1
  store i32 %35, ptr %8, align 4
  call void @_ZNSt7__cxx1112basic_stringIcSt11char_traitsIcESaIcEED1Ev(ptr noundef nonnull align 8 dereferenceable(32) %6) #3
  br label %38

36:                                               ; preds = %31, %29, %18
  %37 = load i1, ptr %3, align 1
  ret i1 %37

38:                                               ; preds = %32
  %39 = load ptr, ptr %7, align 8
  %40 = load i32, ptr %8, align 4
  %41 = insertvalue { ptr, i32 } poison, ptr %39, 0
  %42 = insertvalue { ptr, i32 } %41, i32 %40, 1
  resume { ptr, i32 } %42
}